target datalayout = "e-m:e-p270:32:32-p271:32:32-p272:64:64-i64:64-i128:128-f80:128-n8:16:32:64-S128"
target triple = "x86_64-pc-linux-gnu"

%struct.BigInt = type { i32, [546 x i8] }

@.str = private unnamed_addr constant [30 x i8] c"Assertion %s failed at %s:%d\0A\00", align 1
@.str.1 = private unnamed_addr constant [18 x i8] c"b->nb_words < 546\00", align 1
@.str.2 = private unnamed_addr constant [19 x i8] c"libavcodec/xface.c\00", align 1

; Function Attrs: nounwind uwtable
define void @ff_big_add(ptr noundef %0, i8 noundef zeroext %1) #0 {
  %3 = alloca ptr, align 8
  %4 = alloca i8, align 1
  %5 = alloca i32, align 4
  %6 = alloca ptr, align 8
  %7 = alloca i16, align 2
  %8 = alloca i32, align 4
  store ptr %0, ptr %3, align 8, !tbaa !4
  store i8 %1, ptr %4, align 1, !tbaa !8
  call void @llvm.lifetime.start.p0(i64 4, ptr %5) #4
  call void @llvm.lifetime.start.p0(i64 8, ptr %6) #4
  call void @llvm.lifetime.start.p0(i64 2, ptr %7) #4
  %9 = load i8, ptr %4, align 1, !tbaa !8
  %10 = zext i8 %9 to i32
  %11 = and i32 %10, 255
  %12 = trunc i32 %11 to i8
  store i8 %12, ptr %4, align 1, !tbaa !8
  %13 = load i8, ptr %4, align 1, !tbaa !8
  %14 = zext i8 %13 to i32
  %15 = icmp eq i32 %14, 0
  br i1 %15, label %16, label %17

16:                                               ; preds = %2
  store i32 1, ptr %8, align 4
  br label %86

17:                                               ; preds = %2
  %18 = load ptr, ptr %3, align 8, !tbaa !4
  %19 = getelementptr inbounds nuw %struct.BigInt, ptr %18, i32 0, i32 1
  %20 = getelementptr inbounds [546 x i8], ptr %19, i64 0, i64 0
  store ptr %20, ptr %6, align 8, !tbaa !9
  %21 = load i8, ptr %4, align 1, !tbaa !8
  %22 = zext i8 %21 to i16
  store i16 %22, ptr %7, align 2, !tbaa !11
  store i32 0, ptr %5, align 4, !tbaa !13
  br label %23

23:                                               ; preds = %53, %17
  %24 = load i32, ptr %5, align 4, !tbaa !13
  %25 = load ptr, ptr %3, align 8, !tbaa !4
  %26 = getelementptr inbounds nuw %struct.BigInt, ptr %25, i32 0, i32 0
  %27 = load i32, ptr %26, align 4, !tbaa !15
  %28 = icmp slt i32 %24, %27
  br i1 %28, label %29, label %33

29:                                               ; preds = %23
  %30 = load i16, ptr %7, align 2, !tbaa !11
  %31 = zext i16 %30 to i32
  %32 = icmp ne i32 %31, 0
  br label %33

33:                                               ; preds = %29, %23
  %34 = phi i1 [ false, %23 ], [ %32, %29 ]
  br i1 %34, label %35, label %56

35:                                               ; preds = %33
  %36 = load ptr, ptr %6, align 8, !tbaa !9
  %37 = load i8, ptr %36, align 1, !tbaa !8
  %38 = zext i8 %37 to i32
  %39 = load i16, ptr %7, align 2, !tbaa !11
  %40 = zext i16 %39 to i32
  %41 = add nsw i32 %40, %38
  %42 = trunc i32 %41 to i16
  store i16 %42, ptr %7, align 2, !tbaa !11
  %43 = load i16, ptr %7, align 2, !tbaa !11
  %44 = zext i16 %43 to i32
  %45 = and i32 %44, 255
  %46 = trunc i32 %45 to i8
  %47 = load ptr, ptr %6, align 8, !tbaa !9
  %48 = getelementptr inbounds nuw i8, ptr %47, i32 1
  store ptr %48, ptr %6, align 8, !tbaa !9
  store i8 %46, ptr %47, align 1, !tbaa !8
  %49 = load i16, ptr %7, align 2, !tbaa !11
  %50 = zext i16 %49 to i32
  %51 = ashr i32 %50, 8
  %52 = trunc i32 %51 to i16
  store i16 %52, ptr %7, align 2, !tbaa !11
  br label %53

53:                                               ; preds = %35
  %54 = load i32, ptr %5, align 4, !tbaa !13
  %55 = add nsw i32 %54, 1
  store i32 %55, ptr %5, align 4, !tbaa !13
  br label %23, !llvm.loop !17

56:                                               ; preds = %33
  %57 = load i32, ptr %5, align 4, !tbaa !13
  %58 = load ptr, ptr %3, align 8, !tbaa !4
  %59 = getelementptr inbounds nuw %struct.BigInt, ptr %58, i32 0, i32 0
  %60 = load i32, ptr %59, align 4, !tbaa !15
  %61 = icmp eq i32 %57, %60
  br i1 %61, label %62, label %85

62:                                               ; preds = %56
  %63 = load i16, ptr %7, align 2, !tbaa !11
  %64 = zext i16 %63 to i32
  %65 = icmp ne i32 %64, 0
  br i1 %65, label %66, label %85

66:                                               ; preds = %62
  br label %67

67:                                               ; preds = %66
  %68 = load ptr, ptr %3, align 8, !tbaa !4
  %69 = getelementptr inbounds nuw %struct.BigInt, ptr %68, i32 0, i32 0
  %70 = load i32, ptr %69, align 4, !tbaa !15
  %71 = icmp slt i32 %70, 546
  br i1 %71, label %73, label %72

72:                                               ; preds = %67
  call void (ptr, i32, ptr, ...) @av_log(ptr noundef null, i32 noundef 0, ptr noundef @.str, ptr noundef @.str.1, ptr noundef @.str.2, i32 noundef 48)
  call void @abort() #5
  unreachable

73:                                               ; preds = %67
  br label %74

74:                                               ; preds = %73
  br label %75

75:                                               ; preds = %74
  %76 = load ptr, ptr %3, align 8, !tbaa !4
  %77 = getelementptr inbounds nuw %struct.BigInt, ptr %76, i32 0, i32 0
  %78 = load i32, ptr %77, align 4, !tbaa !15
  %79 = add nsw i32 %78, 1
  store i32 %79, ptr %77, align 4, !tbaa !15
  %80 = load i16, ptr %7, align 2, !tbaa !11
  %81 = zext i16 %80 to i32
  %82 = and i32 %81, 255
  %83 = trunc i32 %82 to i8
  %84 = load ptr, ptr %6, align 8, !tbaa !9
  store i8 %83, ptr %84, align 1, !tbaa !8
  br label %85

85:                                               ; preds = %75, %62, %56
  store i32 0, ptr %8, align 4
  br label %86

86:                                               ; preds = %85, %16
  call void @llvm.lifetime.end.p0(i64 2, ptr %7) #4
  call void @llvm.lifetime.end.p0(i64 8, ptr %6) #4
  call void @llvm.lifetime.end.p0(i64 4, ptr %5) #4
  %87 = load i32, ptr %8, align 4
  switch i32 %87, label %89 [
    i32 0, label %88
    i32 1, label %88
  ]

88:                                               ; preds = %86, %86
  ret void

89:                                               ; preds = %86
  unreachable
}