; Function Attrs: nounwind uwtable
define void @ff_big_add(ptr noundef captures(none) %0, i8 noundef zeroext %1) local_unnamed_addr #0 {
  %3 = icmp eq i8 %1, 0
  br i1 %3, label %28, label %4

4:                                                ; preds = %2
  %5 = getelementptr inbounds nuw i8, ptr %0, i64 4
  %6 = load i32, ptr %0, align 4, !tbaa !4
  %7 = icmp sgt i32 %6, 0
  br i1 %7, label %.lr.ph.preheader, label %._crit_edge.thread

.lr.ph.preheader:                                 ; preds = %4
  %8 = zext i8 %1 to i32
  br label %.lr.ph

.lr.ph:                                           ; preds = %.lr.ph.preheader, %.lr.ph
  %.028 = phi i32 [ %14, %.lr.ph ], [ %8, %.lr.ph.preheader ]
  %.02127 = phi ptr [ %13, %.lr.ph ], [ %5, %.lr.ph.preheader ]
  %.02226 = phi i32 [ %15, %.lr.ph ], [ 0, %.lr.ph.preheader ]
  %9 = load i8, ptr %.02127, align 1, !tbaa !9
  %10 = zext i8 %9 to i32
  %11 = add nuw nsw i32 %.028, %10
  %12 = trunc i32 %11 to i8
  %13 = getelementptr inbounds nuw i8, ptr %.02127, i64 1
  store i8 %12, ptr %.02127, align 1, !tbaa !9
  %14 = lshr i32 %11, 8
  %15 = add nuw nsw i32 %.02226, 1
  %16 = load i32, ptr %0, align 4, !tbaa !4
  %17 = icmp slt i32 %15, %16
  %18 = and i32 %11, 16776960
  %19 = icmp ne i32 %18, 0
  %20 = select i1 %17, i1 %19, i1 false
  br i1 %20, label %.lr.ph, label %._crit_edge, !llvm.loop !10

._crit_edge:                                      ; preds = %.lr.ph
  %21 = icmp eq i32 %15, %16
  %or.cond = select i1 %21, i1 %19, i1 false
  br i1 %or.cond, label %23, label %28

._crit_edge.thread:                               ; preds = %4
  %22 = icmp eq i32 %6, 0
  br i1 %22, label %.thread, label %28

23:                                               ; preds = %._crit_edge
  %24 = trunc nuw i32 %14 to i8
  %25 = icmp samesign ult i32 %.02226, 545
  br i1 %25, label %.thread, label %26

26:                                               ; preds = %23
  tail call void (ptr, i32, ptr, ...) @av_log(ptr noundef null, i32 noundef 0, ptr noundef nonnull @.str, ptr noundef nonnull @.str.1, ptr noundef nonnull @.str.2, i32 noundef 48) #5
  tail call void @abort() #6
  unreachable

.thread:                                          ; preds = %._crit_edge.thread, %23
  %.022.lcssa4452 = phi i32 [ %15, %23 ], [ 0, %._crit_edge.thread ]
  %.021.lcssa4551 = phi ptr [ %13, %23 ], [ %5, %._crit_edge.thread ]
  %.0.lcssa4650 = phi i8 [ %24, %23 ], [ %1, %._crit_edge.thread ]
  %27 = add nsw i32 %.022.lcssa4452, 1
  store i32 %27, ptr %0, align 4, !tbaa !4
  store i8 %.0.lcssa4650, ptr %.021.lcssa4551, align 1, !tbaa !9
  br label %28

28:                                               ; preds = %._crit_edge.thread, %._crit_edge, %.thread, %2
  ret void
}